(ideluge.core.torrentmanager
TorrentManagerState
p1
(dp2
S'torrents'
p3
(lp4
(ideluge.core.torrentmanager
TorrentState
p5
(dp6
S'max_download_speed'
p7
F-1
sS'move_completed_path'
p8
S'/home/tehftw/Downloads'
p9
sS'paused'
p10
I01
sS'max_upload_slots'
p11
I-1
sS'prioritize_first_last'
p12
I00
sS'max_connections'
p13
I-1
sS'compact'
p14
I00
sS'queue'
p15
I1
sS'file_priorities'
p16
(lp17
sS'filename'
p18
S'a2db79fc4bdffe6f604c2dddfc62f5fd3e11685f'
p19
sS'max_upload_speed'
p20
F-1
sS'save_path'
p21
S'/home/tehftw/Downloads'
p22
sS'time_added'
p23
F1551861402.49979
sS'total_uploaded'
p24
I0
sS'torrent_id'
p25
g19
sS'auto_managed'
p26
I01
sS'stop_at_ratio'
p27
I00
sS'move_completed'
p28
I00
sS'trackers'
p29
(lp30
(dp31
S'send_stats'
p32
I01
sS'fails'
p33
I0
sS'verified'
p34
I00
sS'scrape_incomplete'
p35
I-1
sS'min_announce'
p36
NsS'source'
p37
I4
sS'url'
p38
S'udp://tracker.leechers-paradise.org:6969'
p39
sS'last_error'
p40
(dp41
S'category'
p42
S'system'
p43
sS'value'
p44
I0
ssS'fail_limit'
p45
I0
sS'next_announce'
p46
NsS'complete_sent'
p47
I00
sS'scrape_downloaded'
p48
I-1
sS'trackerid'
p49
S''
sS'start_sent'
p50
I00
sS'tier'
p51
I0
sS'scrape_complete'
p52
I-1
sS'message'
p53
S''
sS'updating'
p54
I00
sa(dp55
S'send_stats'
p56
I01
sS'fails'
p57
I0
sS'verified'
p58
I00
sS'scrape_incomplete'
p59
I-1
sS'min_announce'
p60
NsS'source'
p61
I4
sS'url'
p62
S'udp://zer0day.ch:1337'
p63
sS'last_error'
p64
(dp65
S'category'
p66
S'system'
p67
sS'value'
p68
I0
ssS'fail_limit'
p69
I0
sS'next_announce'
p70
NsS'complete_sent'
p71
I00
sS'scrape_downloaded'
p72
I-1
sS'trackerid'
p73
S''
sS'start_sent'
p74
I00
sS'tier'
p75
I1
sS'scrape_complete'
p76
I-1
sS'message'
p77
S''
sS'updating'
p78
I00
sa(dp79
S'send_stats'
p80
I01
sS'fails'
p81
I0
sS'verified'
p82
I00
sS'scrape_incomplete'
p83
I-1
sS'min_announce'
p84
NsS'source'
p85
I4
sS'url'
p86
S'udp://open.demonii.com:1337'
p87
sS'last_error'
p88
(dp89
S'category'
p90
S'system'
p91
sS'value'
p92
I0
ssS'fail_limit'
p93
I0
sS'next_announce'
p94
NsS'complete_sent'
p95
I00
sS'scrape_downloaded'
p96
I-1
sS'trackerid'
p97
S''
sS'start_sent'
p98
I00
sS'tier'
p99
I2
sS'scrape_complete'
p100
I-1
sS'message'
p101
S''
sS'updating'
p102
I00
sa(dp103
S'send_stats'
p104
I01
sS'fails'
p105
I0
sS'verified'
p106
I00
sS'scrape_incomplete'
p107
I-1
sS'min_announce'
p108
NsS'source'
p109
I4
sS'url'
p110
S'udp://tracker.coppersurfer.tk:6969'
p111
sS'last_error'
p112
(dp113
S'category'
p114
S'system'
p115
sS'value'
p116
I0
ssS'fail_limit'
p117
I0
sS'next_announce'
p118
NsS'complete_sent'
p119
I00
sS'scrape_downloaded'
p120
I-1
sS'trackerid'
p121
S''
sS'start_sent'
p122
I00
sS'tier'
p123
I3
sS'scrape_complete'
p124
I-1
sS'message'
p125
S''
sS'updating'
p126
I00
sa(dp127
S'send_stats'
p128
I01
sS'fails'
p129
I0
sS'verified'
p130
I00
sS'scrape_incomplete'
p131
I-1
sS'min_announce'
p132
NsS'source'
p133
I4
sS'url'
p134
S'udp://exodus.desync.com:6969'
p135
sS'last_error'
p136
(dp137
S'category'
p138
S'system'
p139
sS'value'
p140
I0
ssS'fail_limit'
p141
I0
sS'next_announce'
p142
NsS'complete_sent'
p143
I00
sS'scrape_downloaded'
p144
I-1
sS'trackerid'
p145
S''
sS'start_sent'
p146
I00
sS'tier'
p147
I4
sS'scrape_complete'
p148
I-1
sS'message'
p149
S''
sS'updating'
p150
I00
sasS'magnet'
p151
S'magnet:?xt=urn:btih:a2db79fc4bdffe6f604c2dddfc62f5fd3e11685f&dn=Monster+%28The+Complete+Anime+Series%29+%5BDUAL-AUDIO%5D+%5B480p%5D+%5BHEVC%5D&tr=udp%3A%2F%2Ftracker.leechers-paradise.org%3A6969&tr=udp%3A%2F%2Fzer0day.ch%3A1337&tr=udp%3A%2F%2Fopen.demonii.com%3A1337&tr=udp%3A%2F%2Ftracker.coppersurfer.tk%3A6969&tr=udp%3A%2F%2Fexodus.desync.com%3A6969'
p152
sS'remove_at_ratio'
p153
I00
sS'stop_ratio'
p154
F2
sS'is_finished'
p155
I00
sba(ideluge.core.torrentmanager
TorrentState
p156
(dp157
g7
F-1
sg8
S'/home/tehftw/Downloads'
p158
sg10
I00
sg11
I-1
sg12
I00
sg13
I-1
sg14
I00
sg15
I-1
sg16
(lp159
I4
aI4
aI4
aI4
aI4
aI4
aI4
aI4
aI4
aI4
aI4
aI4
aI4
aI4
aI4
aI4
aI4
aI4
aI4
aI4
aI4
aI4
aI4
aI4
asg18
S'198a86df3c43c51f52266d107bf9be14de2cbb70'
p160
sg20
F-1
sg21
S'/home/tehftw/Downloads'
p161
sg23
F1550757677.477618
sg24
I10282057
sg25
S'198a86df3c43c51f52266d107bf9be14de2cbb70'
p162
sg26
I01
sg27
I00
sg28
I00
sg29
(lp163
(dp164
S'send_stats'
p165
I01
sS'fails'
p166
I0
sS'verified'
p167
I00
sS'scrape_incomplete'
p168
I-1
sS'min_announce'
p169
NsS'source'
p170
I4
sS'url'
p171
S'udp://tracker.leechers-paradise.org:6969'
p172
sS'last_error'
p173
(dp174
S'category'
p175
S'system'
p176
sS'value'
p177
I0
ssS'fail_limit'
p178
I0
sS'next_announce'
p179
NsS'complete_sent'
p180
I00
sS'scrape_downloaded'
p181
I-1
sS'trackerid'
p182
S''
sS'start_sent'
p183
I00
sS'tier'
p184
I0
sS'scrape_complete'
p185
I-1
sS'message'
p186
S''
sS'updating'
p187
I00
sa(dp188
S'send_stats'
p189
I01
sS'fails'
p190
I0
sS'verified'
p191
I00
sS'scrape_incomplete'
p192
I-1
sS'min_announce'
p193
NsS'source'
p194
I4
sS'url'
p195
S'udp://zer0day.ch:1337'
p196
sS'last_error'
p197
(dp198
S'category'
p199
S'system'
p200
sS'value'
p201
I0
ssS'fail_limit'
p202
I0
sS'next_announce'
p203
NsS'complete_sent'
p204
I00
sS'scrape_downloaded'
p205
I-1
sS'trackerid'
p206
S''
sS'start_sent'
p207
I00
sS'tier'
p208
I1
sS'scrape_complete'
p209
I-1
sS'message'
p210
S''
sS'updating'
p211
I00
sa(dp212
S'send_stats'
p213
I01
sS'fails'
p214
I0
sS'verified'
p215
I00
sS'scrape_incomplete'
p216
I-1
sS'min_announce'
p217
NsS'source'
p218
I4
sS'url'
p219
S'udp://open.demonii.com:1337'
p220
sS'last_error'
p221
(dp222
S'category'
p223
S'system'
p224
sS'value'
p225
I0
ssS'fail_limit'
p226
I0
sS'next_announce'
p227
NsS'complete_sent'
p228
I00
sS'scrape_downloaded'
p229
I-1
sS'trackerid'
p230
S''
sS'start_sent'
p231
I00
sS'tier'
p232
I2
sS'scrape_complete'
p233
I-1
sS'message'
p234
S''
sS'updating'
p235
I00
sa(dp236
S'send_stats'
p237
I01
sS'fails'
p238
I0
sS'verified'
p239
I00
sS'scrape_incomplete'
p240
I-1
sS'min_announce'
p241
NsS'source'
p242
I4
sS'url'
p243
S'udp://tracker.coppersurfer.tk:6969'
p244
sS'last_error'
p245
(dp246
S'category'
p247
S'system'
p248
sS'value'
p249
I0
ssS'fail_limit'
p250
I0
sS'next_announce'
p251
NsS'complete_sent'
p252
I00
sS'scrape_downloaded'
p253
I-1
sS'trackerid'
p254
S''
sS'start_sent'
p255
I00
sS'tier'
p256
I3
sS'scrape_complete'
p257
I-1
sS'message'
p258
S''
sS'updating'
p259
I00
sa(dp260
S'send_stats'
p261
I01
sS'fails'
p262
I0
sS'verified'
p263
I00
sS'scrape_incomplete'
p264
I-1
sS'min_announce'
p265
NsS'source'
p266
I4
sS'url'
p267
S'udp://exodus.desync.com:6969'
p268
sS'last_error'
p269
(dp270
S'category'
p271
S'system'
p272
sS'value'
p273
I0
ssS'fail_limit'
p274
I0
sS'next_announce'
p275
NsS'complete_sent'
p276
I00
sS'scrape_downloaded'
p277
I-1
sS'trackerid'
p278
S''
sS'start_sent'
p279
I00
sS'tier'
p280
I4
sS'scrape_complete'
p281
I-1
sS'message'
p282
S''
sS'updating'
p283
I00
sasg151
Nsg153
I00
sg154
F2
sg155
I01
sba(ideluge.core.torrentmanager
TorrentState
p284
(dp285
g7
F-1
sg8
S'/home/tehftw/Downloads'
p286
sg10
I00
sg11
I-1
sg12
I00
sg13
I-1
sg14
I00
sg15
I0
sg16
(lp287
I4
asg18
S'e9d1d6e14105d1737d30f2240f2db49b12dd4d58'
p288
sg20
F-1
sg21
S'/home/tehftw/Downloads'
p289
sg23
F1551269593.0910771
sg24
I0
sg25
S'e9d1d6e14105d1737d30f2240f2db49b12dd4d58'
p290
sg26
I01
sg27
I00
sg28
I00
sg29
(lp291
(dp292
S'send_stats'
p293
I01
sS'fails'
p294
I0
sS'verified'
p295
I00
sS'scrape_incomplete'
p296
I-1
sS'min_announce'
p297
NsS'scrape_downloaded'
p298
I-1
sS'url'
p299
S'udp://tracker.leechers-paradise.org:6969'
p300
sS'last_error'
p301
(dp302
S'category'
p303
S'system'
p304
sS'value'
p305
I0
ssS'fail_limit'
p306
I0
sS'next_announce'
p307
NsS'complete_sent'
p308
I00
sS'source'
p309
I4
sS'trackerid'
p310
S''
sS'start_sent'
p311
I00
sS'tier'
p312
I0
sS'scrape_complete'
p313
I-1
sS'message'
p314
S''
sS'updating'
p315
I00
sa(dp316
S'send_stats'
p317
I01
sS'fails'
p318
I0
sS'verified'
p319
I00
sS'scrape_incomplete'
p320
I-1
sS'min_announce'
p321
NsS'scrape_downloaded'
p322
I-1
sS'url'
p323
S'udp://zer0day.ch:1337'
p324
sS'last_error'
p325
(dp326
S'category'
p327
S'system'
p328
sS'value'
p329
I0
ssS'fail_limit'
p330
I0
sS'next_announce'
p331
NsS'complete_sent'
p332
I00
sS'source'
p333
I4
sS'trackerid'
p334
S''
sS'start_sent'
p335
I00
sS'tier'
p336
I1
sS'scrape_complete'
p337
I-1
sS'message'
p338
S''
sS'updating'
p339
I00
sa(dp340
S'send_stats'
p341
I01
sS'fails'
p342
I0
sS'verified'
p343
I00
sS'scrape_incomplete'
p344
I-1
sS'min_announce'
p345
NsS'scrape_downloaded'
p346
I-1
sS'url'
p347
S'udp://open.demonii.com:1337'
p348
sS'last_error'
p349
(dp350
S'category'
p351
S'system'
p352
sS'value'
p353
I0
ssS'fail_limit'
p354
I0
sS'next_announce'
p355
NsS'complete_sent'
p356
I00
sS'source'
p357
I4
sS'trackerid'
p358
S''
sS'start_sent'
p359
I00
sS'tier'
p360
I2
sS'scrape_complete'
p361
I-1
sS'message'
p362
S''
sS'updating'
p363
I00
sa(dp364
S'send_stats'
p365
I01
sS'fails'
p366
I0
sS'verified'
p367
I00
sS'scrape_incomplete'
p368
I-1
sS'min_announce'
p369
NsS'scrape_downloaded'
p370
I-1
sS'url'
p371
S'udp://tracker.coppersurfer.tk:6969'
p372
sS'last_error'
p373
(dp374
S'category'
p375
S'system'
p376
sS'value'
p377
I0
ssS'fail_limit'
p378
I0
sS'next_announce'
p379
NsS'complete_sent'
p380
I00
sS'source'
p381
I4
sS'trackerid'
p382
S''
sS'start_sent'
p383
I00
sS'tier'
p384
I3
sS'scrape_complete'
p385
I-1
sS'message'
p386
S''
sS'updating'
p387
I00
sa(dp388
S'send_stats'
p389
I01
sS'fails'
p390
I0
sS'verified'
p391
I00
sS'scrape_incomplete'
p392
I-1
sS'min_announce'
p393
NsS'scrape_downloaded'
p394
I-1
sS'url'
p395
S'udp://exodus.desync.com:6969'
p396
sS'last_error'
p397
(dp398
S'category'
p399
S'system'
p400
sS'value'
p401
I0
ssS'fail_limit'
p402
I0
sS'next_announce'
p403
NsS'complete_sent'
p404
I00
sS'source'
p405
I4
sS'trackerid'
p406
S''
sS'start_sent'
p407
I00
sS'tier'
p408
I4
sS'scrape_complete'
p409
I-1
sS'message'
p410
S''
sS'updating'
p411
I00
sasg151
Nsg153
I00
sg154
F2
sg155
I01
sba(ideluge.core.torrentmanager
TorrentState
p412
(dp413
g7
F-1
sg8
S'/home/tehftw/Downloads'
p414
sg10
I00
sg11
I-1
sg12
I00
sg13
I-1
sg14
I00
sg15
I-1
sg16
(lp415
I4
aI4
aI4
aI4
aI4
aI4
aI4
aI4
aI4
aI4
aI4
aI4
aI4
aI4
aI4
aI4
aI4
aI4
aI4
aI4
aI4
aI4
aI4
aI4
aI4
aI4
aI4
aI4
aI4
aI4
aI4
aI4
aI4
aI4
aI4
aI4
aI4
aI4
aI4
aI4
aI4
aI4
aI4
aI4
aI4
aI4
aI4
aI4
aI4
aI4
aI4
aI4
aI4
aI4
aI4
aI4
aI4
aI4
aI4
aI4
aI4
aI4
aI4
aI4
aI4
aI4
aI4
aI4
aI4
aI4
aI4
aI4
aI4
aI4
aI4
aI4
aI4
aI4
asg18
S'1e210f476403cedfafadc850928dbe870d10ef53'
p416
sg20
F-1
sg21
S'/home/tehftw/Downloads'
p417
sg23
F1550757467.3328021
sg24
I134332416
sg25
S'1e210f476403cedfafadc850928dbe870d10ef53'
p418
sg26
I01
sg27
I00
sg28
I00
sg29
(lp419
(dp420
S'send_stats'
p421
I01
sS'fails'
p422
I0
sS'verified'
p423
I00
sS'scrape_incomplete'
p424
I-1
sS'min_announce'
p425
NsS'source'
p426
I4
sS'url'
p427
S'udp://tracker.leechers-paradise.org:6969'
p428
sS'last_error'
p429
(dp430
S'category'
p431
S'system'
p432
sS'value'
p433
I0
ssS'fail_limit'
p434
I0
sS'next_announce'
p435
NsS'complete_sent'
p436
I00
sS'scrape_downloaded'
p437
I-1
sS'trackerid'
p438
S''
sS'start_sent'
p439
I00
sS'tier'
p440
I0
sS'scrape_complete'
p441
I-1
sS'message'
p442
S''
sS'updating'
p443
I00
sa(dp444
S'send_stats'
p445
I01
sS'fails'
p446
I0
sS'verified'
p447
I00
sS'scrape_incomplete'
p448
I-1
sS'min_announce'
p449
NsS'source'
p450
I4
sS'url'
p451
S'udp://zer0day.ch:1337'
p452
sS'last_error'
p453
(dp454
S'category'
p455
S'system'
p456
sS'value'
p457
I0
ssS'fail_limit'
p458
I0
sS'next_announce'
p459
NsS'complete_sent'
p460
I00
sS'scrape_downloaded'
p461
I-1
sS'trackerid'
p462
S''
sS'start_sent'
p463
I00
sS'tier'
p464
I1
sS'scrape_complete'
p465
I-1
sS'message'
p466
S''
sS'updating'
p467
I00
sa(dp468
S'send_stats'
p469
I01
sS'fails'
p470
I0
sS'verified'
p471
I00
sS'scrape_incomplete'
p472
I-1
sS'min_announce'
p473
NsS'source'
p474
I4
sS'url'
p475
S'udp://open.demonii.com:1337'
p476
sS'last_error'
p477
(dp478
S'category'
p479
S'system'
p480
sS'value'
p481
I0
ssS'fail_limit'
p482
I0
sS'next_announce'
p483
NsS'complete_sent'
p484
I00
sS'scrape_downloaded'
p485
I-1
sS'trackerid'
p486
S''
sS'start_sent'
p487
I00
sS'tier'
p488
I2
sS'scrape_complete'
p489
I-1
sS'message'
p490
S''
sS'updating'
p491
I00
sa(dp492
S'send_stats'
p493
I01
sS'fails'
p494
I0
sS'verified'
p495
I00
sS'scrape_incomplete'
p496
I-1
sS'min_announce'
p497
NsS'source'
p498
I4
sS'url'
p499
S'udp://tracker.coppersurfer.tk:6969'
p500
sS'last_error'
p501
(dp502
S'category'
p503
S'system'
p504
sS'value'
p505
I0
ssS'fail_limit'
p506
I0
sS'next_announce'
p507
NsS'complete_sent'
p508
I00
sS'scrape_downloaded'
p509
I-1
sS'trackerid'
p510
S''
sS'start_sent'
p511
I00
sS'tier'
p512
I3
sS'scrape_complete'
p513
I-1
sS'message'
p514
S''
sS'updating'
p515
I00
sa(dp516
S'send_stats'
p517
I01
sS'fails'
p518
I0
sS'verified'
p519
I00
sS'scrape_incomplete'
p520
I-1
sS'min_announce'
p521
NsS'source'
p522
I4
sS'url'
p523
S'udp://exodus.desync.com:6969'
p524
sS'last_error'
p525
(dp526
S'category'
p527
S'system'
p528
sS'value'
p529
I0
ssS'fail_limit'
p530
I0
sS'next_announce'
p531
NsS'complete_sent'
p532
I00
sS'scrape_downloaded'
p533
I-1
sS'trackerid'
p534
S''
sS'start_sent'
p535
I00
sS'tier'
p536
I4
sS'scrape_complete'
p537
I-1
sS'message'
p538
S''
sS'updating'
p539
I00
sasg151
Nsg153
I00
sg154
F2
sg155
I01
sba(ideluge.core.torrentmanager
TorrentState
p540
(dp541
g7
F-1
sg8
S'/home/tehftw/Downloads'
p542
sg10
I00
sg11
I-1
sg12
I00
sg13
I-1
sg14
I00
sg15
I-1
sg16
(lp543
I4
aI4
aI4
aI4
aI4
aI4
aI4
aI4
aI4
aI4
aI4
aI4
aI4
aI4
aI4
aI4
aI4
aI4
aI4
aI4
aI4
aI4
aI4
aI4
aI4
aI4
aI4
aI4
aI4
aI4
aI4
aI4
aI4
aI4
aI4
aI4
aI4
aI4
aI4
aI4
aI4
aI4
aI4
aI4
aI4
aI4
aI4
aI4
aI4
aI4
aI4
aI4
aI4
aI4
aI4
aI4
aI4
aI4
aI4
aI4
aI4
aI4
aI4
aI4
aI4
aI4
aI4
aI4
aI4
aI4
aI4
aI4
aI4
aI4
aI4
aI4
aI4
aI4
aI4
aI4
aI4
aI4
asg18
S'a9b734a5f3de4dfdf8e64c57a51ed73d53bfbd3d'
p544
sg20
F-1
sg21
S'/home/tehftw/Downloads'
p545
sg23
F1551269608.3950629
sg24
I0
sg25
S'a9b734a5f3de4dfdf8e64c57a51ed73d53bfbd3d'
p546
sg26
I01
sg27
I00
sg28
I00
sg29
(lp547
(dp548
S'send_stats'
p549
I01
sS'fails'
p550
I0
sS'verified'
p551
I00
sS'scrape_incomplete'
p552
I-1
sS'min_announce'
p553
NsS'scrape_downloaded'
p554
I-1
sS'url'
p555
S'udp://tracker.leechers-paradise.org:6969'
p556
sS'last_error'
p557
(dp558
S'category'
p559
S'system'
p560
sS'value'
p561
I0
ssS'fail_limit'
p562
I0
sS'next_announce'
p563
NsS'complete_sent'
p564
I00
sS'source'
p565
I4
sS'trackerid'
p566
S''
sS'start_sent'
p567
I00
sS'tier'
p568
I0
sS'scrape_complete'
p569
I-1
sS'message'
p570
S''
sS'updating'
p571
I00
sa(dp572
S'send_stats'
p573
I01
sS'fails'
p574
I0
sS'verified'
p575
I00
sS'scrape_incomplete'
p576
I-1
sS'min_announce'
p577
NsS'scrape_downloaded'
p578
I-1
sS'url'
p579
S'udp://zer0day.ch:1337'
p580
sS'last_error'
p581
(dp582
S'category'
p583
S'system'
p584
sS'value'
p585
I0
ssS'fail_limit'
p586
I0
sS'next_announce'
p587
NsS'complete_sent'
p588
I00
sS'source'
p589
I4
sS'trackerid'
p590
S''
sS'start_sent'
p591
I00
sS'tier'
p592
I1
sS'scrape_complete'
p593
I-1
sS'message'
p594
S''
sS'updating'
p595
I00
sa(dp596
S'send_stats'
p597
I01
sS'fails'
p598
I0
sS'verified'
p599
I00
sS'scrape_incomplete'
p600
I-1
sS'min_announce'
p601
NsS'scrape_downloaded'
p602
I-1
sS'url'
p603
S'udp://open.demonii.com:1337'
p604
sS'last_error'
p605
(dp606
S'category'
p607
S'system'
p608
sS'value'
p609
I0
ssS'fail_limit'
p610
I0
sS'next_announce'
p611
NsS'complete_sent'
p612
I00
sS'source'
p613
I4
sS'trackerid'
p614
S''
sS'start_sent'
p615
I00
sS'tier'
p616
I2
sS'scrape_complete'
p617
I-1
sS'message'
p618
S''
sS'updating'
p619
I00
sa(dp620
S'send_stats'
p621
I01
sS'fails'
p622
I0
sS'verified'
p623
I00
sS'scrape_incomplete'
p624
I-1
sS'min_announce'
p625
NsS'scrape_downloaded'
p626
I-1
sS'url'
p627
S'udp://tracker.coppersurfer.tk:6969'
p628
sS'last_error'
p629
(dp630
S'category'
p631
S'system'
p632
sS'value'
p633
I0
ssS'fail_limit'
p634
I0
sS'next_announce'
p635
NsS'complete_sent'
p636
I00
sS'source'
p637
I4
sS'trackerid'
p638
S''
sS'start_sent'
p639
I00
sS'tier'
p640
I3
sS'scrape_complete'
p641
I-1
sS'message'
p642
S''
sS'updating'
p643
I00
sa(dp644
S'send_stats'
p645
I01
sS'fails'
p646
I0
sS'verified'
p647
I00
sS'scrape_incomplete'
p648
I-1
sS'min_announce'
p649
NsS'scrape_downloaded'
p650
I-1
sS'url'
p651
S'udp://exodus.desync.com:6969'
p652
sS'last_error'
p653
(dp654
S'category'
p655
S'system'
p656
sS'value'
p657
I0
ssS'fail_limit'
p658
I0
sS'next_announce'
p659
NsS'complete_sent'
p660
I00
sS'source'
p661
I4
sS'trackerid'
p662
S''
sS'start_sent'
p663
I00
sS'tier'
p664
I4
sS'scrape_complete'
p665
I-1
sS'message'
p666
S''
sS'updating'
p667
I00
sasg151
Nsg153
I00
sg154
F2
sg155
I01
sbasb.